; Function Attrs: mustprogress nounwind uwtable
define hidden void @_ZN13TemplateTable4lop2ENS_9OperationE(i32 noundef %0) local_unnamed_addr #0 align 2 {
  tail call void @_ZN13TemplateTable10transitionE8TosStateS0_(i32 noundef 5, i32 noundef 5) #8
  switch i32 %0, label %51 [
    i32 0, label %2
    i32 1, label %11
    i32 5, label %24
    i32 6, label %33
    i32 7, label %42
  ]

2:                                                ; preds = %1
  %3 = load ptr, ptr @_ZN13TemplateTable5_masmE, align 8
  %4 = load i8, ptr @PrintInterpreter, align 1
  %5 = trunc i8 %4 to i1
  br i1 %5, label %6, label %_ZN12Disassembler4hookI25InterpreterMacroAssemblerEEPT_PKciS3_.exit

6:                                                ; preds = %2
  tail call void @_ZN12Disassembler5_hookEPKciP14MacroAssembler(ptr noundef nonnull @.str, i32 noundef 1369, ptr noundef %3) #8
  br label %_ZN12Disassembler4hookI25InterpreterMacroAssemblerEEPT_PKciS3_.exit

_ZN12Disassembler4hookI25InterpreterMacroAssemblerEEPT_PKciS3_.exit: ; preds = %2, %6
  tail call void @_ZN25InterpreterMacroAssembler5pop_lE8Register(ptr noundef nonnull align 8 dereferenceable(48) %3, i32 2) #8
  %7 = load ptr, ptr @_ZN13TemplateTable5_masmE, align 8
  %8 = load i8, ptr @PrintInterpreter, align 1
  %9 = trunc i8 %8 to i1
  br i1 %9, label %10, label %_ZN12Disassembler4hookI25InterpreterMacroAssemblerEEPT_PKciS3_.exit17

10:                                               ; preds = %_ZN12Disassembler4hookI25InterpreterMacroAssemblerEEPT_PKciS3_.exit
  tail call void @_ZN12Disassembler5_hookEPKciP14MacroAssembler(ptr noundef nonnull @.str, i32 noundef 1369, ptr noundef %7) #8
  br label %_ZN12Disassembler4hookI25InterpreterMacroAssemblerEEPT_PKciS3_.exit17

_ZN12Disassembler4hookI25InterpreterMacroAssemblerEEPT_PKciS3_.exit17: ; preds = %_ZN12Disassembler4hookI25InterpreterMacroAssemblerEEPT_PKciS3_.exit, %10
  tail call void @_ZN14MacroAssembler6addptrE8RegisterS0_(ptr noundef nonnull align 8 dereferenceable(40) %7, i32 0, i32 2) #8
  br label %53

11:                                               ; preds = %1
  %12 = load ptr, ptr @_ZN13TemplateTable5_masmE, align 8
  %13 = load i8, ptr @PrintInterpreter, align 1
  %14 = trunc i8 %13 to i1
  br i1 %14, label %15, label %_ZN12Disassembler4hookI25InterpreterMacroAssemblerEEPT_PKciS3_.exit18

15:                                               ; preds = %11
  tail call void @_ZN12Disassembler5_hookEPKciP14MacroAssembler(ptr noundef nonnull @.str, i32 noundef 1370, ptr noundef %12) #8
  br label %_ZN12Disassembler4hookI25InterpreterMacroAssemblerEEPT_PKciS3_.exit18

_ZN12Disassembler4hookI25InterpreterMacroAssemblerEEPT_PKciS3_.exit18: ; preds = %11, %15
  tail call void @_ZN9Assembler3movE8RegisterS0_(ptr noundef nonnull align 8 dereferenceable(40) %12, i32 2, i32 0) #8
  %16 = load ptr, ptr @_ZN13TemplateTable5_masmE, align 8
  %17 = load i8, ptr @PrintInterpreter, align 1
  %18 = trunc i8 %17 to i1
  br i1 %18, label %19, label %_ZN12Disassembler4hookI25InterpreterMacroAssemblerEEPT_PKciS3_.exit19

19:                                               ; preds = %_ZN12Disassembler4hookI25InterpreterMacroAssemblerEEPT_PKciS3_.exit18
  tail call void @_ZN12Disassembler5_hookEPKciP14MacroAssembler(ptr noundef nonnull @.str, i32 noundef 1370, ptr noundef %16) #8
  br label %_ZN12Disassembler4hookI25InterpreterMacroAssemblerEEPT_PKciS3_.exit19

_ZN12Disassembler4hookI25InterpreterMacroAssemblerEEPT_PKciS3_.exit19: ; preds = %_ZN12Disassembler4hookI25InterpreterMacroAssemblerEEPT_PKciS3_.exit18, %19
  tail call void @_ZN25InterpreterMacroAssembler5pop_lE8Register(ptr noundef nonnull align 8 dereferenceable(48) %16, i32 0) #8
  %20 = load ptr, ptr @_ZN13TemplateTable5_masmE, align 8
  %21 = load i8, ptr @PrintInterpreter, align 1
  %22 = trunc i8 %21 to i1
  br i1 %22, label %23, label %_ZN12Disassembler4hookI25InterpreterMacroAssemblerEEPT_PKciS3_.exit20

23:                                               ; preds = %_ZN12Disassembler4hookI25InterpreterMacroAssemblerEEPT_PKciS3_.exit19
  tail call void @_ZN12Disassembler5_hookEPKciP14MacroAssembler(ptr noundef nonnull @.str, i32 noundef 1370, ptr noundef %20) #8
  br label %_ZN12Disassembler4hookI25InterpreterMacroAssemblerEEPT_PKciS3_.exit20

_ZN12Disassembler4hookI25InterpreterMacroAssemblerEEPT_PKciS3_.exit20: ; preds = %_ZN12Disassembler4hookI25InterpreterMacroAssemblerEEPT_PKciS3_.exit19, %23
  tail call void @_ZN14MacroAssembler6subptrE8RegisterS0_(ptr noundef nonnull align 8 dereferenceable(40) %20, i32 0, i32 2) #8
  br label %53

24:                                               ; preds = %1
  %25 = load ptr, ptr @_ZN13TemplateTable5_masmE, align 8
  %26 = load i8, ptr @PrintInterpreter, align 1
  %27 = trunc i8 %26 to i1
  br i1 %27, label %28, label %_ZN12Disassembler4hookI25InterpreterMacroAssemblerEEPT_PKciS3_.exit21

28:                                               ; preds = %24
  tail call void @_ZN12Disassembler5_hookEPKciP14MacroAssembler(ptr noundef nonnull @.str, i32 noundef 1371, ptr noundef %25) #8
  br label %_ZN12Disassembler4hookI25InterpreterMacroAssemblerEEPT_PKciS3_.exit21

_ZN12Disassembler4hookI25InterpreterMacroAssemblerEEPT_PKciS3_.exit21: ; preds = %24, %28
  tail call void @_ZN25InterpreterMacroAssembler5pop_lE8Register(ptr noundef nonnull align 8 dereferenceable(48) %25, i32 2) #8
  %29 = load ptr, ptr @_ZN13TemplateTable5_masmE, align 8
  %30 = load i8, ptr @PrintInterpreter, align 1
  %31 = trunc i8 %30 to i1
  br i1 %31, label %32, label %_ZN12Disassembler4hookI25InterpreterMacroAssemblerEEPT_PKciS3_.exit22

32:                                               ; preds = %_ZN12Disassembler4hookI25InterpreterMacroAssemblerEEPT_PKciS3_.exit21
  tail call void @_ZN12Disassembler5_hookEPKciP14MacroAssembler(ptr noundef nonnull @.str, i32 noundef 1371, ptr noundef %29) #8
  br label %_ZN12Disassembler4hookI25InterpreterMacroAssemblerEEPT_PKciS3_.exit22

_ZN12Disassembler4hookI25InterpreterMacroAssemblerEEPT_PKciS3_.exit22: ; preds = %_ZN12Disassembler4hookI25InterpreterMacroAssemblerEEPT_PKciS3_.exit21, %32
  tail call void @_ZN9Assembler4andqE8RegisterS0_(ptr noundef nonnull align 8 dereferenceable(40) %29, i32 0, i32 2) #8
  br label %53

33:                                               ; preds = %1
  %34 = load ptr, ptr @_ZN13TemplateTable5_masmE, align 8
  %35 = load i8, ptr @PrintInterpreter, align 1
  %36 = trunc i8 %35 to i1
  br i1 %36, label %37, label %_ZN12Disassembler4hookI25InterpreterMacroAssemblerEEPT_PKciS3_.exit23

37:                                               ; preds = %33
  tail call void @_ZN12Disassembler5_hookEPKciP14MacroAssembler(ptr noundef nonnull @.str, i32 noundef 1372, ptr noundef %34) #8
  br label %_ZN12Disassembler4hookI25InterpreterMacroAssemblerEEPT_PKciS3_.exit23

_ZN12Disassembler4hookI25InterpreterMacroAssemblerEEPT_PKciS3_.exit23: ; preds = %33, %37
  tail call void @_ZN25InterpreterMacroAssembler5pop_lE8Register(ptr noundef nonnull align 8 dereferenceable(48) %34, i32 2) #8
  %38 = load ptr, ptr @_ZN13TemplateTable5_masmE, align 8
  %39 = load i8, ptr @PrintInterpreter, align 1
  %40 = trunc i8 %39 to i1
  br i1 %40, label %41, label %_ZN12Disassembler4hookI25InterpreterMacroAssemblerEEPT_PKciS3_.exit24

41:                                               ; preds = %_ZN12Disassembler4hookI25InterpreterMacroAssemblerEEPT_PKciS3_.exit23
  tail call void @_ZN12Disassembler5_hookEPKciP14MacroAssembler(ptr noundef nonnull @.str, i32 noundef 1372, ptr noundef %38) #8
  br label %_ZN12Disassembler4hookI25InterpreterMacroAssemblerEEPT_PKciS3_.exit24

_ZN12Disassembler4hookI25InterpreterMacroAssemblerEEPT_PKciS3_.exit24: ; preds = %_ZN12Disassembler4hookI25InterpreterMacroAssemblerEEPT_PKciS3_.exit23, %41
  tail call void @_ZN9Assembler3orqE8RegisterS0_(ptr noundef nonnull align 8 dereferenceable(40) %38, i32 0, i32 2) #8
  br label %53

42:                                               ; preds = %1
  %43 = load ptr, ptr @_ZN13TemplateTable5_masmE, align 8
  %44 = load i8, ptr @PrintInterpreter, align 1
  %45 = trunc i8 %44 to i1
  br i1 %45, label %46, label %_ZN12Disassembler4hookI25InterpreterMacroAssemblerEEPT_PKciS3_.exit25

46:                                               ; preds = %42
  tail call void @_ZN12Disassembler5_hookEPKciP14MacroAssembler(ptr noundef nonnull @.str, i32 noundef 1373, ptr noundef %43) #8
  br label %_ZN12Disassembler4hookI25InterpreterMacroAssemblerEEPT_PKciS3_.exit25

_ZN12Disassembler4hookI25InterpreterMacroAssemblerEEPT_PKciS3_.exit25: ; preds = %42, %46
  tail call void @_ZN25InterpreterMacroAssembler5pop_lE8Register(ptr noundef nonnull align 8 dereferenceable(48) %43, i32 2) #8
  %47 = load ptr, ptr @_ZN13TemplateTable5_masmE, align 8
  %48 = load i8, ptr @PrintInterpreter, align 1
  %49 = trunc i8 %48 to i1
  br i1 %49, label %50, label %_ZN12Disassembler4hookI25InterpreterMacroAssemblerEEPT_PKciS3_.exit26

50:                                               ; preds = %_ZN12Disassembler4hookI25InterpreterMacroAssemblerEEPT_PKciS3_.exit25
  tail call void @_ZN12Disassembler5_hookEPKciP14MacroAssembler(ptr noundef nonnull @.str, i32 noundef 1373, ptr noundef %47) #8
  br label %_ZN12Disassembler4hookI25InterpreterMacroAssemblerEEPT_PKciS3_.exit26

_ZN12Disassembler4hookI25InterpreterMacroAssemblerEEPT_PKciS3_.exit26: ; preds = %_ZN12Disassembler4hookI25InterpreterMacroAssemblerEEPT_PKciS3_.exit25, %50
  tail call void @_ZN9Assembler4xorqE8RegisterS0_(ptr noundef nonnull align 8 dereferenceable(40) %47, i32 0, i32 2) #8
  br label %53

51:                                               ; preds = %1
  %52 = load ptr, ptr @g_assert_poison, align 8
  store i8 88, ptr %52, align 1
  tail call void @_Z28report_should_not_reach_herePKci(ptr noundef nonnull @.str, i32 noundef 1374) #9
  unreachable

53:                                               ; preds = %_ZN12Disassembler4hookI25InterpreterMacroAssemblerEEPT_PKciS3_.exit26, %_ZN12Disassembler4hookI25InterpreterMacroAssemblerEEPT_PKciS3_.exit24, %_ZN12Disassembler4hookI25InterpreterMacroAssemblerEEPT_PKciS3_.exit22, %_ZN12Disassembler4hookI25InterpreterMacroAssemblerEEPT_PKciS3_.exit20, %_ZN12Disassembler4hookI25InterpreterMacroAssemblerEEPT_PKciS3_.exit17
  ret void
}